target datalayout = "e-m:e-p270:32:32-p271:32:32-p272:64:64-i64:64-i128:128-f80:128-n8:16:32:64-S128"
target triple = "x86_64-pc-linux-gnu"

%struct.SDL_IOStreamInterface = type { i32, ptr, ptr, ptr, ptr, ptr, ptr }
%struct.SDL_IOStream = type { %struct.SDL_IOStreamInterface, ptr, i32, i32 }
%struct.IOStreamMemData = type { ptr, ptr, ptr }
%struct.IOStreamDynamicMemData = type { ptr, %struct.IOStreamMemData, ptr }

@.str.2 = private unnamed_addr constant [26 x i8] c"Parameter '%s' is invalid\00", align 1
@.str.11 = private unnamed_addr constant [8 x i8] c"context\00", align 1
@.str.26 = private unnamed_addr constant [31 x i8] c"SDL.iostream.dynamic.chunksize\00", align 1
@.str.27 = private unnamed_addr constant [28 x i8] c"SDL.iostream.dynamic.memory\00", align 1

; Function Attrs: nounwind uwtable
define hidden i32 @SDL_GetIOProperties_REAL(ptr noundef %0) #0 {
  %2 = alloca i32, align 4
  %3 = alloca ptr, align 8
  store ptr %0, ptr %3, align 8
  %4 = load ptr, ptr %3, align 8
  %5 = icmp ne ptr %4, null
  br i1 %5, label %8, label %6

6:                                                ; preds = %1
  %7 = call zeroext i1 (ptr, ...) @SDL_SetError_REAL(ptr noundef @.str.2, ptr noundef @.str.11)
  store i32 0, ptr %2, align 4
  br label %21

8:                                                ; preds = %1
  %9 = load ptr, ptr %3, align 8
  %10 = getelementptr inbounds nuw %struct.SDL_IOStream, ptr %9, i32 0, i32 3
  %11 = load i32, ptr %10, align 4
  %12 = icmp eq i32 %11, 0
  br i1 %12, label %13, label %17

13:                                               ; preds = %8
  %14 = call i32 @SDL_CreateProperties_REAL()
  %15 = load ptr, ptr %3, align 8
  %16 = getelementptr inbounds nuw %struct.SDL_IOStream, ptr %15, i32 0, i32 3
  store i32 %14, ptr %16, align 4
  br label %17

17:                                               ; preds = %13, %8
  %18 = load ptr, ptr %3, align 8
  %19 = getelementptr inbounds nuw %struct.SDL_IOStream, ptr %18, i32 0, i32 3
  %20 = load i32, ptr %19, align 4
  store i32 %20, ptr %2, align 4
  br label %21

21:                                               ; preds = %17, %6
  %22 = load i32, ptr %2, align 4
  ret i32 %22
}

; Function Attrs: nounwind uwtable
define internal i64 @mem_io(ptr noundef %0, ptr noundef %1, ptr noundef %2, i64 noundef %3) #0 {
  %5 = alloca ptr, align 8
  %6 = alloca ptr, align 8
  %7 = alloca ptr, align 8
  %8 = alloca i64, align 8
  %9 = alloca ptr, align 8
  %10 = alloca i64, align 8
  store ptr %0, ptr %5, align 8
  store ptr %1, ptr %6, align 8
  store ptr %2, ptr %7, align 8
  store i64 %3, ptr %8, align 8
  call void @llvm.lifetime.start.p0(i64 8, ptr %9) #11
  %11 = load ptr, ptr %5, align 8
  store ptr %11, ptr %9, align 8
  call void @llvm.lifetime.start.p0(i64 8, ptr %10) #11
  %12 = load ptr, ptr %9, align 8
  %13 = getelementptr inbounds nuw %struct.IOStreamMemData, ptr %12, i32 0, i32 2
  %14 = load ptr, ptr %13, align 8
  %15 = load ptr, ptr %9, align 8
  %16 = getelementptr inbounds nuw %struct.IOStreamMemData, ptr %15, i32 0, i32 1
  %17 = load ptr, ptr %16, align 8
  %18 = ptrtoint ptr %14 to i64
  %19 = ptrtoint ptr %17 to i64
  %20 = sub i64 %18, %19
  store i64 %20, ptr %10, align 8
  %21 = load i64, ptr %8, align 8
  %22 = load i64, ptr %10, align 8
  %23 = icmp ugt i64 %21, %22
  br i1 %23, label %24, label %26

24:                                               ; preds = %4
  %25 = load i64, ptr %10, align 8
  store i64 %25, ptr %8, align 8
  br label %26

26:                                               ; preds = %24, %4
  %27 = load ptr, ptr %6, align 8
  %28 = load ptr, ptr %7, align 8
  %29 = load i64, ptr %8, align 8
  call void @llvm.memcpy.p0.p0.i64(ptr align 1 %27, ptr align 1 %28, i64 %29, i1 false)
  %30 = load i64, ptr %8, align 8
  %31 = load ptr, ptr %9, align 8
  %32 = getelementptr inbounds nuw %struct.IOStreamMemData, ptr %31, i32 0, i32 1
  %33 = load ptr, ptr %32, align 8
  %34 = getelementptr inbounds nuw i8, ptr %33, i64 %30
  store ptr %34, ptr %32, align 8
  %35 = load i64, ptr %8, align 8
  call void @llvm.lifetime.end.p0(i64 8, ptr %10) #11
  call void @llvm.lifetime.end.p0(i64 8, ptr %9) #11
  ret i64 %35
}

; Function Attrs: nounwind uwtable
define internal zeroext i1 @dynamic_mem_realloc(ptr noundef %0, i64 noundef %1) #0 {
  %3 = alloca i1, align 1
  %4 = alloca ptr, align 8
  %5 = alloca i64, align 8
  %6 = alloca i64, align 8
  %7 = alloca i64, align 8
  %8 = alloca i64, align 8
  %9 = alloca ptr, align 8
  %10 = alloca i32, align 4
  %11 = alloca i64, align 8
  %12 = alloca i64, align 8
  store ptr %0, ptr %4, align 8
  store i64 %1, ptr %5, align 8
  call void @llvm.lifetime.start.p0(i64 8, ptr %6) #11
  %13 = load ptr, ptr %4, align 8
  %14 = getelementptr inbounds nuw %struct.IOStreamDynamicMemData, ptr %13, i32 0, i32 0
  %15 = load ptr, ptr %14, align 8
  %16 = call i32 @SDL_GetIOProperties_REAL(ptr noundef %15)
  %17 = call i64 @SDL_GetNumberProperty_REAL(i32 noundef %16, ptr noundef @.str.26, i64 noundef 0)
  store i64 %17, ptr %6, align 8
  %18 = load i64, ptr %6, align 8
  %19 = icmp ne i64 %18, 0
  br i1 %19, label %21, label %20

20:                                               ; preds = %2
  store i64 1024, ptr %6, align 8
  br label %21

21:                                               ; preds = %20, %2
  call void @llvm.lifetime.start.p0(i64 8, ptr %7) #11
  %22 = load ptr, ptr %4, align 8
  %23 = getelementptr inbounds nuw %struct.IOStreamDynamicMemData, ptr %22, i32 0, i32 2
  %24 = load ptr, ptr %23, align 8
  %25 = load ptr, ptr %4, align 8
  %26 = getelementptr inbounds nuw %struct.IOStreamDynamicMemData, ptr %25, i32 0, i32 1
  %27 = getelementptr inbounds nuw %struct.IOStreamMemData, ptr %26, i32 0, i32 0
  %28 = load ptr, ptr %27, align 8
  %29 = ptrtoint ptr %24 to i64
  %30 = ptrtoint ptr %28 to i64
  %31 = sub i64 %29, %30
  %32 = load i64, ptr %5, align 8
  %33 = add i64 %31, %32
  %34 = load i64, ptr %6, align 8
  %35 = udiv i64 %33, %34
  %36 = add i64 %35, 1
  store i64 %36, ptr %7, align 8
  call void @llvm.lifetime.start.p0(i64 8, ptr %8) #11
  %37 = load i64, ptr %7, align 8
  %38 = load i64, ptr %6, align 8
  %39 = mul i64 %37, %38
  store i64 %39, ptr %8, align 8
  call void @llvm.lifetime.start.p0(i64 8, ptr %9) #11
  %40 = load ptr, ptr %4, align 8
  %41 = getelementptr inbounds nuw %struct.IOStreamDynamicMemData, ptr %40, i32 0, i32 1
  %42 = getelementptr inbounds nuw %struct.IOStreamMemData, ptr %41, i32 0, i32 0
  %43 = load ptr, ptr %42, align 8
  %44 = load i64, ptr %8, align 8
  %45 = call ptr @SDL_realloc_REAL(ptr noundef %43, i64 noundef %44) #14
  store ptr %45, ptr %9, align 8
  %46 = load ptr, ptr %9, align 8
  %47 = icmp ne ptr %46, null
  br i1 %47, label %49, label %48

48:                                               ; preds = %21
  store i1 false, ptr %3, align 1
  store i32 1, ptr %10, align 4
  br label %99

49:                                               ; preds = %21
  call void @llvm.lifetime.start.p0(i64 8, ptr %11) #11
  %50 = load ptr, ptr %4, align 8
  %51 = getelementptr inbounds nuw %struct.IOStreamDynamicMemData, ptr %50, i32 0, i32 1
  %52 = getelementptr inbounds nuw %struct.IOStreamMemData, ptr %51, i32 0, i32 1
  %53 = load ptr, ptr %52, align 8
  %54 = load ptr, ptr %4, align 8
  %55 = getelementptr inbounds nuw %struct.IOStreamDynamicMemData, ptr %54, i32 0, i32 1
  %56 = getelementptr inbounds nuw %struct.IOStreamMemData, ptr %55, i32 0, i32 0
  %57 = load ptr, ptr %56, align 8
  %58 = ptrtoint ptr %53 to i64
  %59 = ptrtoint ptr %57 to i64
  %60 = sub i64 %58, %59
  store i64 %60, ptr %11, align 8
  call void @llvm.lifetime.start.p0(i64 8, ptr %12) #11
  %61 = load ptr, ptr %4, align 8
  %62 = getelementptr inbounds nuw %struct.IOStreamDynamicMemData, ptr %61, i32 0, i32 1
  %63 = getelementptr inbounds nuw %struct.IOStreamMemData, ptr %62, i32 0, i32 2
  %64 = load ptr, ptr %63, align 8
  %65 = load ptr, ptr %4, align 8
  %66 = getelementptr inbounds nuw %struct.IOStreamDynamicMemData, ptr %65, i32 0, i32 1
  %67 = getelementptr inbounds nuw %struct.IOStreamMemData, ptr %66, i32 0, i32 0
  %68 = load ptr, ptr %67, align 8
  %69 = ptrtoint ptr %64 to i64
  %70 = ptrtoint ptr %68 to i64
  %71 = sub i64 %69, %70
  store i64 %71, ptr %12, align 8
  %72 = load ptr, ptr %9, align 8
  %73 = load ptr, ptr %4, align 8
  %74 = getelementptr inbounds nuw %struct.IOStreamDynamicMemData, ptr %73, i32 0, i32 1
  %75 = getelementptr inbounds nuw %struct.IOStreamMemData, ptr %74, i32 0, i32 0
  store ptr %72, ptr %75, align 8
  %76 = load ptr, ptr %9, align 8
  %77 = load i64, ptr %11, align 8
  %78 = getelementptr inbounds nuw i8, ptr %76, i64 %77
  %79 = load ptr, ptr %4, align 8
  %80 = getelementptr inbounds nuw %struct.IOStreamDynamicMemData, ptr %79, i32 0, i32 1
  %81 = getelementptr inbounds nuw %struct.IOStreamMemData, ptr %80, i32 0, i32 1
  store ptr %78, ptr %81, align 8
  %82 = load ptr, ptr %9, align 8
  %83 = load i64, ptr %12, align 8
  %84 = getelementptr inbounds nuw i8, ptr %82, i64 %83
  %85 = load ptr, ptr %4, align 8
  %86 = getelementptr inbounds nuw %struct.IOStreamDynamicMemData, ptr %85, i32 0, i32 1
  %87 = getelementptr inbounds nuw %struct.IOStreamMemData, ptr %86, i32 0, i32 2
  store ptr %84, ptr %87, align 8
  %88 = load ptr, ptr %9, align 8
  %89 = load i64, ptr %8, align 8
  %90 = getelementptr inbounds nuw i8, ptr %88, i64 %89
  %91 = load ptr, ptr %4, align 8
  %92 = getelementptr inbounds nuw %struct.IOStreamDynamicMemData, ptr %91, i32 0, i32 2
  store ptr %90, ptr %92, align 8
  %93 = load ptr, ptr %4, align 8
  %94 = getelementptr inbounds nuw %struct.IOStreamDynamicMemData, ptr %93, i32 0, i32 0
  %95 = load ptr, ptr %94, align 8
  %96 = call i32 @SDL_GetIOProperties_REAL(ptr noundef %95)
  %97 = load ptr, ptr %9, align 8
  %98 = call zeroext i1 @SDL_SetPointerProperty_REAL(i32 noundef %96, ptr noundef @.str.27, ptr noundef %97)
  store i1 %98, ptr %3, align 1
  store i32 1, ptr %10, align 4
  call void @llvm.lifetime.end.p0(i64 8, ptr %12) #11
  call void @llvm.lifetime.end.p0(i64 8, ptr %11) #11
  br label %99

99:                                               ; preds = %49, %48
  call void @llvm.lifetime.end.p0(i64 8, ptr %9) #11
  call void @llvm.lifetime.end.p0(i64 8, ptr %8) #11
  call void @llvm.lifetime.end.p0(i64 8, ptr %7) #11
  call void @llvm.lifetime.end.p0(i64 8, ptr %6) #11
  %100 = load i1, ptr %3, align 1
  ret i1 %100
}

; Function Attrs: nounwind uwtable
define internal i64 @dynamic_mem_write(ptr noundef %0, ptr noundef %1, i64 noundef %2, ptr noundef %3) #0 {
  %5 = alloca i64, align 8
  %6 = alloca ptr, align 8
  %7 = alloca ptr, align 8
  %8 = alloca i64, align 8
  %9 = alloca ptr, align 8
  %10 = alloca ptr, align 8
  %11 = alloca i32, align 4
  store ptr %0, ptr %6, align 8
  store ptr %1, ptr %7, align 8
  store i64 %2, ptr %8, align 8
  store ptr %3, ptr %9, align 8
  call void @llvm.lifetime.start.p0(i64 8, ptr %10) #11
  %12 = load ptr, ptr %6, align 8
  store ptr %12, ptr %10, align 8
  %13 = load i64, ptr %8, align 8
  %14 = load ptr, ptr %10, align 8
  %15 = getelementptr inbounds nuw %struct.IOStreamDynamicMemData, ptr %14, i32 0, i32 1
  %16 = getelementptr inbounds nuw %struct.IOStreamMemData, ptr %15, i32 0, i32 2
  %17 = load ptr, ptr %16, align 8
  %18 = load ptr, ptr %10, align 8
  %19 = getelementptr inbounds nuw %struct.IOStreamDynamicMemData, ptr %18, i32 0, i32 1
  %20 = getelementptr inbounds nuw %struct.IOStreamMemData, ptr %19, i32 0, i32 1
  %21 = load ptr, ptr %20, align 8
  %22 = ptrtoint ptr %17 to i64
  %23 = ptrtoint ptr %21 to i64
  %24 = sub i64 %22, %23
  %25 = icmp ugt i64 %13, %24
  br i1 %25, label %26, label %55

26:                                               ; preds = %4
  %27 = load i64, ptr %8, align 8
  %28 = load ptr, ptr %10, align 8
  %29 = getelementptr inbounds nuw %struct.IOStreamDynamicMemData, ptr %28, i32 0, i32 2
  %30 = load ptr, ptr %29, align 8
  %31 = load ptr, ptr %10, align 8
  %32 = getelementptr inbounds nuw %struct.IOStreamDynamicMemData, ptr %31, i32 0, i32 1
  %33 = getelementptr inbounds nuw %struct.IOStreamMemData, ptr %32, i32 0, i32 1
  %34 = load ptr, ptr %33, align 8
  %35 = ptrtoint ptr %30 to i64
  %36 = ptrtoint ptr %34 to i64
  %37 = sub i64 %35, %36
  %38 = icmp ugt i64 %27, %37
  br i1 %38, label %39, label %45

39:                                               ; preds = %26
  %40 = load ptr, ptr %10, align 8
  %41 = load i64, ptr %8, align 8
  %42 = call zeroext i1 @dynamic_mem_realloc(ptr noundef %40, i64 noundef %41)
  br i1 %42, label %44, label %43

43:                                               ; preds = %39
  store i64 0, ptr %5, align 8
  store i32 1, ptr %11, align 4
  br label %65

44:                                               ; preds = %39
  br label %45

45:                                               ; preds = %44, %26
  %46 = load ptr, ptr %10, align 8
  %47 = getelementptr inbounds nuw %struct.IOStreamDynamicMemData, ptr %46, i32 0, i32 1
  %48 = getelementptr inbounds nuw %struct.IOStreamMemData, ptr %47, i32 0, i32 1
  %49 = load ptr, ptr %48, align 8
  %50 = load i64, ptr %8, align 8
  %51 = getelementptr inbounds nuw i8, ptr %49, i64 %50
  %52 = load ptr, ptr %10, align 8
  %53 = getelementptr inbounds nuw %struct.IOStreamDynamicMemData, ptr %52, i32 0, i32 1
  %54 = getelementptr inbounds nuw %struct.IOStreamMemData, ptr %53, i32 0, i32 2
  store ptr %51, ptr %54, align 8
  br label %55

55:                                               ; preds = %45, %4
  %56 = load ptr, ptr %10, align 8
  %57 = getelementptr inbounds nuw %struct.IOStreamDynamicMemData, ptr %56, i32 0, i32 1
  %58 = load ptr, ptr %10, align 8
  %59 = getelementptr inbounds nuw %struct.IOStreamDynamicMemData, ptr %58, i32 0, i32 1
  %60 = getelementptr inbounds nuw %struct.IOStreamMemData, ptr %59, i32 0, i32 1
  %61 = load ptr, ptr %60, align 8
  %62 = load ptr, ptr %7, align 8
  %63 = load i64, ptr %8, align 8
  %64 = call i64 @mem_io(ptr noundef %57, ptr noundef %61, ptr noundef %62, i64 noundef %63)
  store i64 %64, ptr %5, align 8
  store i32 1, ptr %11, align 4
  br label %65

65:                                               ; preds = %55, %43
  call void @llvm.lifetime.end.p0(i64 8, ptr %10) #11
  %66 = load i64, ptr %5, align 8
  ret i64 %66
}