; Function Attrs: nounwind uwtable
define internal i64 @dynamic_mem_write(ptr noundef captures(none) %0, ptr noundef readonly captures(none) %1, i64 noundef %2, ptr readnone captures(none) %3) #0 {
  %5 = getelementptr inbounds nuw i8, ptr %0, i64 8
  %6 = getelementptr inbounds nuw i8, ptr %0, i64 24
  %7 = load ptr, ptr %6, align 8
  %8 = getelementptr inbounds nuw i8, ptr %0, i64 16
  %9 = load ptr, ptr %8, align 8
  %10 = ptrtoint ptr %7 to i64
  %11 = ptrtoint ptr %9 to i64
  %12 = sub i64 %10, %11
  %13 = icmp ugt i64 %2, %12
  br i1 %13, label %14, label %66

14:                                               ; preds = %4
  %15 = getelementptr inbounds nuw i8, ptr %0, i64 32
  %16 = load ptr, ptr %15, align 8
  %17 = ptrtoint ptr %16 to i64
  %18 = sub i64 %17, %11
  %19 = icmp ugt i64 %2, %18
  br i1 %19, label %20, label %63

20:                                               ; preds = %14
  %21 = load ptr, ptr %0, align 8
  %.not.i.i = icmp eq ptr %21, null
  br i1 %.not.i.i, label %22, label %24

22:                                               ; preds = %20
  %23 = tail call zeroext i1 (ptr, ...) @SDL_SetError_REAL(ptr noundef nonnull @.str.2, ptr noundef nonnull @.str.11) #18
  br label %SDL_GetIOProperties_REAL.exit.i

24:                                               ; preds = %20
  %25 = getelementptr inbounds nuw i8, ptr %21, i64 68
  %26 = load i32, ptr %25, align 4
  %27 = icmp eq i32 %26, 0
  br i1 %27, label %28, label %SDL_GetIOProperties_REAL.exit.i

28:                                               ; preds = %24
  %29 = tail call i32 @SDL_CreateProperties_REAL() #18
  store i32 %29, ptr %25, align 4
  br label %SDL_GetIOProperties_REAL.exit.i

SDL_GetIOProperties_REAL.exit.i:                  ; preds = %28, %24, %22
  %.0.i.i = phi i32 [ 0, %22 ], [ %29, %28 ], [ %26, %24 ]
  %30 = tail call i64 @SDL_GetNumberProperty_REAL(i32 noundef %.0.i.i, ptr noundef nonnull @.str.26, i64 noundef 0) #18
  %.not.i = icmp eq i64 %30, 0
  %spec.store.select.i = select i1 %.not.i, i64 1024, i64 %30
  %31 = load ptr, ptr %15, align 8
  %32 = load ptr, ptr %5, align 8
  %33 = ptrtoint ptr %31 to i64
  %34 = ptrtoint ptr %32 to i64
  %35 = add i64 %2, %33
  %36 = sub i64 %35, %34
  %37 = udiv i64 %36, %spec.store.select.i
  %38 = add i64 %37, 1
  %39 = mul i64 %38, %spec.store.select.i
  %40 = tail call ptr @SDL_realloc_REAL(ptr noundef %32, i64 noundef %39) #20
  %.not29.i = icmp eq ptr %40, null
  br i1 %.not29.i, label %dynamic_mem_realloc.exit.thread, label %41

41:                                               ; preds = %SDL_GetIOProperties_REAL.exit.i
  %42 = load ptr, ptr %8, align 8
  %43 = load ptr, ptr %5, align 8
  %44 = ptrtoint ptr %42 to i64
  %45 = ptrtoint ptr %43 to i64
  %46 = sub i64 %44, %45
  %47 = load ptr, ptr %6, align 8
  %48 = ptrtoint ptr %47 to i64
  %49 = sub i64 %48, %45
  store ptr %40, ptr %5, align 8
  %50 = getelementptr inbounds nuw i8, ptr %40, i64 %46
  store ptr %50, ptr %8, align 8
  %51 = getelementptr inbounds nuw i8, ptr %40, i64 %49
  store ptr %51, ptr %6, align 8
  %52 = getelementptr inbounds nuw i8, ptr %40, i64 %39
  store ptr %52, ptr %15, align 8
  %53 = load ptr, ptr %0, align 8
  %.not.i30.i = icmp eq ptr %53, null
  br i1 %.not.i30.i, label %54, label %56

54:                                               ; preds = %41
  %55 = tail call zeroext i1 (ptr, ...) @SDL_SetError_REAL(ptr noundef nonnull @.str.2, ptr noundef nonnull @.str.11) #18
  br label %dynamic_mem_realloc.exit

56:                                               ; preds = %41
  %57 = getelementptr inbounds nuw i8, ptr %53, i64 68
  %58 = load i32, ptr %57, align 4
  %59 = icmp eq i32 %58, 0
  br i1 %59, label %60, label %dynamic_mem_realloc.exit

60:                                               ; preds = %56
  %61 = tail call i32 @SDL_CreateProperties_REAL() #18
  store i32 %61, ptr %57, align 4
  br label %dynamic_mem_realloc.exit

dynamic_mem_realloc.exit:                         ; preds = %54, %56, %60
  %.0.i31.i = phi i32 [ 0, %54 ], [ %61, %60 ], [ %58, %56 ]
  %62 = tail call zeroext i1 @SDL_SetPointerProperty_REAL(i32 noundef %.0.i31.i, ptr noundef nonnull @.str.27, ptr noundef nonnull %40) #18
  br i1 %62, label %dynamic_mem_realloc.exit._crit_edge, label %dynamic_mem_realloc.exit.thread

dynamic_mem_realloc.exit._crit_edge:              ; preds = %dynamic_mem_realloc.exit
  %.pre = load ptr, ptr %8, align 8
  %.pre23 = ptrtoint ptr %.pre to i64
  br label %63

63:                                               ; preds = %dynamic_mem_realloc.exit._crit_edge, %14
  %.pre19.pre-phi = phi i64 [ %.pre23, %dynamic_mem_realloc.exit._crit_edge ], [ %11, %14 ]
  %64 = phi ptr [ %.pre, %dynamic_mem_realloc.exit._crit_edge ], [ %9, %14 ]
  %65 = getelementptr inbounds nuw i8, ptr %64, i64 %2
  store ptr %65, ptr %6, align 8
  %.pre18 = ptrtoint ptr %65 to i64
  %.pre21 = sub i64 %.pre18, %.pre19.pre-phi
  br label %66

66:                                               ; preds = %63, %4
  %.pre-phi22 = phi i64 [ %.pre21, %63 ], [ %12, %4 ]
  %67 = phi ptr [ %64, %63 ], [ %9, %4 ]
  %spec.select.i = tail call i64 @llvm.umin.i64(i64 %2, i64 %.pre-phi22)
  tail call void @llvm.memcpy.p0.p0.i64(ptr align 1 %67, ptr readonly align 1 %1, i64 %spec.select.i, i1 false)
  %68 = load ptr, ptr %8, align 8
  %69 = getelementptr inbounds nuw i8, ptr %68, i64 %spec.select.i
  store ptr %69, ptr %8, align 8
  br label %dynamic_mem_realloc.exit.thread

dynamic_mem_realloc.exit.thread:                  ; preds = %SDL_GetIOProperties_REAL.exit.i, %dynamic_mem_realloc.exit, %66
  %.0 = phi i64 [ %spec.select.i, %66 ], [ 0, %dynamic_mem_realloc.exit ], [ 0, %SDL_GetIOProperties_REAL.exit.i ]
  ret i64 %.0
}